target datalayout = "e-m:e-p270:32:32-p271:32:32-p272:64:64-i64:64-i128:128-f80:128-n8:16:32:64-S128"
target triple = "x86_64-pc-linux-gnu"

%struct.struct_it8 = type { i32, i32, i32, [255 x %struct._Table], ptr, %struct._SubAllocator, i32, i32, i32, double, ptr, ptr, ptr, ptr, ptr, i32, [20 x ptr], i32, ptr, [128 x i8], ptr }
%struct._Table = type { [1024 x i8], i32, i32, i32, ptr, ptr, ptr }
%struct._SubAllocator = type { ptr, i32, i32 }

@.str.3 = private unnamed_addr constant [3 x i8] c"# \00", align 1
@.str.81 = private unnamed_addr constant [25 x i8] c"Table %d out of sequence\00", align 1

; Function Attrs: nounwind uwtable
define internal ptr @GetTable(ptr noundef %0) #0 {
  %2 = alloca ptr, align 8
  %3 = alloca ptr, align 8
  store ptr %0, ptr %3, align 8
  %4 = load ptr, ptr %3, align 8
  %5 = getelementptr inbounds %struct.struct_it8, ptr %4, i32 0, i32 1
  %6 = load i32, ptr %5, align 4
  %7 = load ptr, ptr %3, align 8
  %8 = getelementptr inbounds %struct.struct_it8, ptr %7, i32 0, i32 0
  %9 = load i32, ptr %8, align 8
  %10 = icmp uge i32 %6, %9
  br i1 %10, label %11, label %20

11:                                               ; preds = %1
  %12 = load ptr, ptr %3, align 8
  %13 = load ptr, ptr %3, align 8
  %14 = getelementptr inbounds %struct.struct_it8, ptr %13, i32 0, i32 1
  %15 = load i32, ptr %14, align 4
  %16 = call i32 (ptr, ptr, ...) @SynError(ptr noundef %12, ptr noundef @.str.81, i32 noundef %15)
  %17 = load ptr, ptr %3, align 8
  %18 = getelementptr inbounds %struct.struct_it8, ptr %17, i32 0, i32 3
  %19 = getelementptr inbounds [255 x %struct._Table], ptr %18, i64 0, i64 0
  store ptr %19, ptr %2, align 8
  br label %29

20:                                               ; preds = %1
  %21 = load ptr, ptr %3, align 8
  %22 = getelementptr inbounds %struct.struct_it8, ptr %21, i32 0, i32 3
  %23 = getelementptr inbounds [255 x %struct._Table], ptr %22, i64 0, i64 0
  %24 = load ptr, ptr %3, align 8
  %25 = getelementptr inbounds %struct.struct_it8, ptr %24, i32 0, i32 1
  %26 = load i32, ptr %25, align 4
  %27 = zext i32 %26 to i64
  %28 = getelementptr inbounds %struct._Table, ptr %23, i64 %27
  store ptr %28, ptr %2, align 8
  br label %29

29:                                               ; preds = %20, %11
  %30 = load ptr, ptr %2, align 8
  ret ptr %30
}

; Function Attrs: nounwind uwtable
define hidden i32 @cmsIT8SetComment(ptr noundef %0, ptr noundef %1) #0 {
  %3 = alloca i32, align 4
  %4 = alloca ptr, align 8
  %5 = alloca ptr, align 8
  %6 = alloca ptr, align 8
  store ptr %0, ptr %4, align 8
  store ptr %1, ptr %5, align 8
  %7 = load ptr, ptr %4, align 8
  store ptr %7, ptr %6, align 8
  %8 = load ptr, ptr %5, align 8
  %9 = icmp ne ptr %8, null
  br i1 %9, label %11, label %10

10:                                               ; preds = %2
  store i32 0, ptr %3, align 4
  br label %25

11:                                               ; preds = %2
  %12 = load ptr, ptr %5, align 8
  %13 = load i8, ptr %12, align 1
  %14 = icmp ne i8 %13, 0
  br i1 %14, label %16, label %15

15:                                               ; preds = %11
  store i32 0, ptr %3, align 4
  br label %25

16:                                               ; preds = %11
  %17 = load ptr, ptr %6, align 8
  %18 = load ptr, ptr %6, align 8
  %19 = call ptr @GetTable(ptr noundef %18)
  %20 = getelementptr inbounds %struct._Table, ptr %19, i32 0, i32 4
  %21 = load ptr, ptr %5, align 8
  %22 = call ptr @AddToList(ptr noundef %17, ptr noundef %20, ptr noundef @.str.3, ptr noundef null, ptr noundef %21, i32 noundef 0)
  %23 = icmp ne ptr %22, null
  %24 = zext i1 %23 to i32
  store i32 %24, ptr %3, align 4
  br label %25

25:                                               ; preds = %16, %15, %10
  %26 = load i32, ptr %3, align 4
  ret i32 %26
}