; Function Attrs: nounwind uwtable
define hidden range(i32 0, 2) i32 @cmsIT8SetComment(ptr nocapture noundef %0, ptr noundef %1) local_unnamed_addr #0 {
  %.not = icmp eq ptr %1, null
  br i1 %.not, label %19, label %3

3:                                                ; preds = %2
  %4 = load i8, ptr %1, align 1
  %.not7 = icmp eq i8 %4, 0
  br i1 %.not7, label %19, label %5

5:                                                ; preds = %3
  %6 = getelementptr inbounds i8, ptr %0, i64 4
  %7 = load i32, ptr %6, align 4
  %8 = load i32, ptr %0, align 8
  %.not.i = icmp ult i32 %7, %8
  br i1 %.not.i, label %11, label %9

9:                                                ; preds = %5
  tail call void (ptr, ptr, ...) @SynError(ptr noundef nonnull %0, ptr noundef nonnull @.str.81, i32 noundef %7)
  %10 = getelementptr inbounds i8, ptr %0, i64 16
  br label %GetTable.exit

11:                                               ; preds = %5
  %12 = getelementptr inbounds i8, ptr %0, i64 16
  %13 = zext i32 %7 to i64
  %14 = getelementptr inbounds %struct._Table, ptr %12, i64 %13
  br label %GetTable.exit

GetTable.exit:                                    ; preds = %9, %11
  %.0.i = phi ptr [ %10, %9 ], [ %14, %11 ]
  %15 = getelementptr inbounds i8, ptr %.0.i, i64 1040
  %16 = tail call fastcc ptr @AddToList(ptr noundef nonnull %0, ptr noundef nonnull %15, ptr noundef nonnull @.str.3, ptr noundef null, ptr noundef nonnull %1, i32 noundef 0)
  %17 = icmp ne ptr %16, null
  %18 = zext i1 %17 to i32
  br label %19

19:                                               ; preds = %3, %2, %GetTable.exit
  %.0 = phi i32 [ %18, %GetTable.exit ], [ 0, %2 ], [ 0, %3 ]
  ret i32 %.0
}